target datalayout = "e-m:e-p270:32:32-p271:32:32-p272:64:64-i64:64-i128:128-f80:128-n8:16:32:64-S128"
target triple = "x86_64-unknown-linux-gnu"

; Function Attrs: mustprogress nounwind uwtable
define internal noundef signext i8 @_ZL9U_FAILURE10UErrorCode(i32 noundef %code) #0 {
entry:
  %code.addr = alloca i32, align 4
  store i32 %code, ptr %code.addr, align 4
  %0 = load i32, ptr %code.addr, align 4
  %cmp = icmp sgt i32 %0, 0
  %conv = zext i1 %cmp to i8
  ret i8 %conv
}

; Function Attrs: mustprogress uwtable
define noundef nonnull align 8 dereferenceable(64) ptr @_ZNK6icu_7512SelectFormat6formatERKNS_11FormattableERNS_13UnicodeStringERNS_13FieldPositionER10UErrorCode(ptr noundef nonnull align 8 dereferenceable(456) %this, ptr noundef nonnull align 8 dereferenceable(112) %obj, ptr noundef nonnull align 8 dereferenceable(64) %appendTo, ptr noundef nonnull align 8 dereferenceable(20) %pos, ptr noundef nonnull align 4 dereferenceable(4) %status) unnamed_addr #1 align 2 {
entry:
  %retval = alloca ptr, align 8
  %this.addr = alloca ptr, align 8
  %obj.addr = alloca ptr, align 8
  %appendTo.addr = alloca ptr, align 8
  %pos.addr = alloca ptr, align 8
  %status.addr = alloca ptr, align 8
  store ptr %this, ptr %this.addr, align 8
  store ptr %obj, ptr %obj.addr, align 8
  store ptr %appendTo, ptr %appendTo.addr, align 8
  store ptr %pos, ptr %pos.addr, align 8
  store ptr %status, ptr %status.addr, align 8
  %this1 = load ptr, ptr %this.addr, align 8
  %0 = load ptr, ptr %status.addr, align 8
  %1 = load i32, ptr %0, align 4
  %call = call noundef signext i8 @_ZL9U_FAILURE10UErrorCode(i32 noundef %1)
  %tobool = icmp ne i8 %call, 0
  br i1 %tobool, label %if.then, label %if.end

if.then:                                          ; preds = %entry
  %2 = load ptr, ptr %appendTo.addr, align 8
  store ptr %2, ptr %retval, align 8
  br label %return

if.end:                                           ; preds = %entry
  %3 = load ptr, ptr %obj.addr, align 8
  %call2 = call noundef i32 @_ZNK6icu_7511Formattable7getTypeEv(ptr noundef nonnull align 8 dereferenceable(112) %3)
  %cmp = icmp eq i32 %call2, 3
  br i1 %cmp, label %if.then3, label %if.else

if.then3:                                         ; preds = %if.end
  %4 = load ptr, ptr %obj.addr, align 8
  %5 = load ptr, ptr %status.addr, align 8
  %call4 = call noundef nonnull align 8 dereferenceable(64) ptr @_ZNK6icu_7511Formattable9getStringER10UErrorCode(ptr noundef nonnull align 8 dereferenceable(112) %4, ptr noundef nonnull align 4 dereferenceable(4) %5)
  %6 = load ptr, ptr %appendTo.addr, align 8
  %7 = load ptr, ptr %pos.addr, align 8
  %8 = load ptr, ptr %status.addr, align 8
  %call5 = call noundef nonnull align 8 dereferenceable(64) ptr @_ZNK6icu_7512SelectFormat6formatERKNS_13UnicodeStringERS1_RNS_13FieldPositionER10UErrorCode(ptr noundef nonnull align 8 dereferenceable(456) %this1, ptr noundef nonnull align 8 dereferenceable(64) %call4, ptr noundef nonnull align 8 dereferenceable(64) %6, ptr noundef nonnull align 8 dereferenceable(20) %7, ptr noundef nonnull align 4 dereferenceable(4) %8)
  store ptr %call5, ptr %retval, align 8
  br label %return

if.else:                                          ; preds = %if.end
  %9 = load ptr, ptr %status.addr, align 8
  store i32 1, ptr %9, align 4
  %10 = load ptr, ptr %appendTo.addr, align 8
  store ptr %10, ptr %retval, align 8
  br label %return

return:                                           ; preds = %if.else, %if.then3, %if.then
  %11 = load ptr, ptr %retval, align 8
  ret ptr %11
}