; Function Attrs: mustprogress uwtable
define noundef nonnull align 8 dereferenceable(64) ptr @_ZNK6icu_7512SelectFormat6formatERKNS_11FormattableERNS_13UnicodeStringERNS_13FieldPositionER10UErrorCode(ptr noundef nonnull align 8 dereferenceable(456) %this, ptr noundef nonnull align 8 dereferenceable(112) %obj, ptr noundef nonnull align 8 dereferenceable(64) %appendTo, ptr nocapture noundef nonnull readnone align 8 dereferenceable(20) %pos, ptr noundef nonnull align 4 dereferenceable(4) %status) unnamed_addr #1 align 2 {
entry:
  %0 = load i32, ptr %status, align 4
  %cmp.i = icmp slt i32 %0, 1
  br i1 %cmp.i, label %if.end, label %return

if.end:                                           ; preds = %entry
  %call2 = tail call noundef i32 @_ZNK6icu_7511Formattable7getTypeEv(ptr noundef nonnull align 8 dereferenceable(112) %obj)
  %cmp = icmp eq i32 %call2, 3
  br i1 %cmp, label %if.then3, label %if.else

if.then3:                                         ; preds = %if.end
  %call4 = tail call noundef nonnull align 8 dereferenceable(64) ptr @_ZNK6icu_7511Formattable9getStringER10UErrorCode(ptr noundef nonnull align 8 dereferenceable(112) %obj, ptr noundef nonnull align 4 dereferenceable(4) %status)
  %call5 = tail call noundef nonnull align 8 dereferenceable(64) ptr @_ZNK6icu_7512SelectFormat6formatERKNS_13UnicodeStringERS1_RNS_13FieldPositionER10UErrorCode(ptr noundef nonnull align 8 dereferenceable(456) %this, ptr noundef nonnull align 8 dereferenceable(64) %call4, ptr noundef nonnull align 8 dereferenceable(64) %appendTo, ptr nonnull align 8 poison, ptr noundef nonnull align 4 dereferenceable(4) %status)
  br label %return

if.else:                                          ; preds = %if.end
  store i32 1, ptr %status, align 4
  br label %return

return:                                           ; preds = %entry, %if.else, %if.then3
  %retval.0 = phi ptr [ %call5, %if.then3 ], [ %appendTo, %if.else ], [ %appendTo, %entry ]
  ret ptr %retval.0
}